target datalayout = "e-m:e-p270:32:32-p271:32:32-p272:64:64-i64:64-i128:128-f80:128-n8:16:32:64-S128"
target triple = "x86_64-pc-linux-gnu"

%struct.Vec_Int_t_ = type { i32, i32, ptr }
%struct.Gia_Man_t_ = type { ptr, ptr, i32, i32, i32, i32, ptr, ptr, i32, i32, i32, ptr, ptr, %struct.Vec_Int_t_, %struct.Vec_Int_t_, i32, i32, i32, %struct.Vec_Int_t_, ptr, ptr, ptr, i32, i32, i32, i32, ptr, ptr, ptr, ptr, ptr, i32, i32, ptr, i32, ptr, ptr, ptr, ptr, ptr, ptr, ptr, ptr, ptr, ptr, ptr, ptr, ptr, ptr, ptr, ptr, ptr, ptr, %struct.Vec_Int_t_, %struct.Vec_Int_t_, ptr, ptr, ptr, ptr, ptr, ptr, ptr, ptr, ptr, ptr, ptr, ptr, ptr, ptr, ptr, ptr, ptr, ptr, ptr, ptr, ptr, i32, float, float, ptr, ptr, i32, ptr, ptr, ptr, ptr, ptr, ptr, ptr, ptr, ptr, ptr, ptr, ptr, ptr, ptr, ptr, i64, i64, ptr, ptr, i32, i32, i32, i32, i32, i32, i32, i32, i32, i32, i32, i32, ptr, ptr, ptr, ptr, ptr, ptr, ptr, ptr, i32, i32, i32, ptr, i32, i32, ptr, ptr, ptr, ptr, ptr, ptr, i32, i32, ptr, %struct.Vec_Int_t_, %struct.Vec_Int_t_, %struct.Vec_Int_t_, ptr, ptr, ptr, i32, i32, i32, i32, ptr, ptr, ptr, ptr, ptr }
%struct.Gia_Obj_t_ = type <{ i64, i32 }>

; Function Attrs: inlinehint nounwind uwtable
define internal ptr @Gia_ManObj(ptr noundef %0, i32 noundef %1) #1 {
  %3 = alloca ptr, align 8
  %4 = alloca i32, align 4
  store ptr %0, ptr %3, align 8, !tbaa !19
  store i32 %1, ptr %4, align 4, !tbaa !8
  %5 = load ptr, ptr %3, align 8, !tbaa !19
  %6 = getelementptr inbounds nuw %struct.Gia_Man_t_, ptr %5, i32 0, i32 6
  %7 = load ptr, ptr %6, align 8, !tbaa !51
  %8 = load i32, ptr %4, align 4, !tbaa !8
  %9 = sext i32 %8 to i64
  %10 = getelementptr inbounds %struct.Gia_Obj_t_, ptr %7, i64 %9
  ret ptr %10
}

; Function Attrs: inlinehint nounwind uwtable
define internal i32 @Vec_IntEntry(ptr noundef %0, i32 noundef %1) #1 {
  %3 = alloca ptr, align 8
  %4 = alloca i32, align 4
  store ptr %0, ptr %3, align 8, !tbaa !22
  store i32 %1, ptr %4, align 4, !tbaa !8
  %5 = load ptr, ptr %3, align 8, !tbaa !22
  %6 = getelementptr inbounds nuw %struct.Vec_Int_t_, ptr %5, i32 0, i32 2
  %7 = load ptr, ptr %6, align 8, !tbaa !26
  %8 = load i32, ptr %4, align 4, !tbaa !8
  %9 = sext i32 %8 to i64
  %10 = getelementptr inbounds i32, ptr %7, i64 %9
  %11 = load i32, ptr %10, align 4, !tbaa !8
  ret i32 %11
}

; Function Attrs: inlinehint nounwind uwtable
define internal i32 @Vec_IntSize(ptr noundef %0) #1 {
  %2 = alloca ptr, align 8
  store ptr %0, ptr %2, align 8, !tbaa !22
  %3 = load ptr, ptr %2, align 8, !tbaa !22
  %4 = getelementptr inbounds nuw %struct.Vec_Int_t_, ptr %3, i32 0, i32 1
  %5 = load i32, ptr %4, align 4, !tbaa !23
  ret i32 %5
}

; Function Attrs: inlinehint nounwind uwtable
define internal void @Vec_IntClear(ptr noundef %0) #1 {
  %2 = alloca ptr, align 8
  store ptr %0, ptr %2, align 8, !tbaa !22
  %3 = load ptr, ptr %2, align 8, !tbaa !22
  %4 = getelementptr inbounds nuw %struct.Vec_Int_t_, ptr %3, i32 0, i32 1
  store i32 0, ptr %4, align 4, !tbaa !23
  ret void
}

; Function Attrs: nounwind uwtable
define i32 @Gia_ManObjCheckOverlap1(ptr noundef %0, i32 noundef %1, i32 noundef %2, ptr noundef %3) #0 {
  %5 = alloca ptr, align 8
  %6 = alloca i32, align 4
  %7 = alloca i32, align 4
  %8 = alloca ptr, align 8
  %9 = alloca ptr, align 8
  %10 = alloca i32, align 4
  %11 = alloca i32, align 4
  %12 = alloca i32, align 4
  store ptr %0, ptr %5, align 8, !tbaa !19
  store i32 %1, ptr %6, align 4, !tbaa !8
  store i32 %2, ptr %7, align 4, !tbaa !8
  store ptr %3, ptr %8, align 8, !tbaa !22
  call void @llvm.lifetime.start.p0(i64 8, ptr %9) #11
  call void @llvm.lifetime.start.p0(i64 4, ptr %10) #11
  call void @llvm.lifetime.start.p0(i64 4, ptr %11) #11
  call void @llvm.lifetime.start.p0(i64 4, ptr %12) #11
  store i32 0, ptr %12, align 4, !tbaa !8
  %13 = load ptr, ptr %8, align 8, !tbaa !22
  call void @Vec_IntClear(ptr noundef %13)
  %14 = load ptr, ptr %5, align 8, !tbaa !19
  %15 = load i32, ptr %6, align 4, !tbaa !8
  %16 = load ptr, ptr %8, align 8, !tbaa !22
  %17 = call i32 @Gia_ManObjCheckSat_rec(ptr noundef %14, i32 noundef %15, ptr noundef %16)
  store i32 %17, ptr %11, align 4, !tbaa !8
  %18 = load i32, ptr %11, align 4, !tbaa !8
  %19 = icmp ne i32 %18, 0
  br i1 %19, label %20, label %25

20:                                               ; preds = %4
  %21 = load ptr, ptr %5, align 8, !tbaa !19
  %22 = load i32, ptr %7, align 4, !tbaa !8
  %23 = load ptr, ptr %8, align 8, !tbaa !22
  %24 = call i32 @Gia_ManObjCheckSat_rec(ptr noundef %21, i32 noundef %22, ptr noundef %23)
  store i32 %24, ptr %12, align 4, !tbaa !8
  br label %25

25:                                               ; preds = %20, %4
  store i32 0, ptr %10, align 4, !tbaa !8
  br label %26

26:                                               ; preds = %49, %25
  %27 = load i32, ptr %10, align 4, !tbaa !8
  %28 = load ptr, ptr %8, align 8, !tbaa !22
  %29 = call i32 @Vec_IntSize(ptr noundef %28)
  %30 = icmp slt i32 %27, %29
  br i1 %30, label %31, label %38

31:                                               ; preds = %26
  %32 = load ptr, ptr %5, align 8, !tbaa !19
  %33 = load ptr, ptr %8, align 8, !tbaa !22
  %34 = load i32, ptr %10, align 4, !tbaa !8
  %35 = call i32 @Vec_IntEntry(ptr noundef %33, i32 noundef %34)
  %36 = call ptr @Gia_ManObj(ptr noundef %32, i32 noundef %35)
  store ptr %36, ptr %9, align 8, !tbaa !20
  %37 = icmp ne ptr %36, null
  br label %38

38:                                               ; preds = %31, %26
  %39 = phi i1 [ false, %26 ], [ %37, %31 ]
  br i1 %39, label %40, label %52

40:                                               ; preds = %38
  %41 = load ptr, ptr %9, align 8, !tbaa !20
  %42 = load i64, ptr %41, align 4
  %43 = and i64 %42, -4611686018427387905
  %44 = or i64 %43, 0
  store i64 %44, ptr %41, align 4
  %45 = load ptr, ptr %9, align 8, !tbaa !20
  %46 = load i64, ptr %45, align 4
  %47 = and i64 %46, -1073741825
  %48 = or i64 %47, 0
  store i64 %48, ptr %45, align 4
  br label %49

49:                                               ; preds = %40
  %50 = load i32, ptr %10, align 4, !tbaa !8
  %51 = add nsw i32 %50, 1
  store i32 %51, ptr %10, align 4, !tbaa !8
  br label %26, !llvm.loop !153

52:                                               ; preds = %38
  %53 = load i32, ptr %11, align 4, !tbaa !8
  %54 = icmp ne i32 %53, 0
  br i1 %54, label %55, label %58

55:                                               ; preds = %52
  %56 = load i32, ptr %12, align 4, !tbaa !8
  %57 = icmp ne i32 %56, 0
  br label %58

58:                                               ; preds = %55, %52
  %59 = phi i1 [ false, %52 ], [ %57, %55 ]
  %60 = zext i1 %59 to i32
  call void @llvm.lifetime.end.p0(i64 4, ptr %12) #11
  call void @llvm.lifetime.end.p0(i64 4, ptr %11) #11
  call void @llvm.lifetime.end.p0(i64 4, ptr %10) #11
  call void @llvm.lifetime.end.p0(i64 8, ptr %9) #11
  ret i32 %60
}

; Function Attrs: nounwind uwtable
define i32 @Gia_ManObjCheckOverlap(ptr noundef %0, i32 noundef %1, i32 noundef %2, ptr noundef %3) #0 {
  %5 = alloca i32, align 4
  %6 = alloca ptr, align 8
  %7 = alloca i32, align 4
  %8 = alloca i32, align 4
  %9 = alloca ptr, align 8
  store ptr %0, ptr %6, align 8, !tbaa !19
  store i32 %1, ptr %7, align 4, !tbaa !8
  store i32 %2, ptr %8, align 4, !tbaa !8
  store ptr %3, ptr %9, align 8, !tbaa !22
  %10 = load ptr, ptr %6, align 8, !tbaa !19
  %11 = load i32, ptr %7, align 4, !tbaa !8
  %12 = load i32, ptr %8, align 4, !tbaa !8
  %13 = load ptr, ptr %9, align 8, !tbaa !22
  %14 = call i32 @Gia_ManObjCheckOverlap1(ptr noundef %10, i32 noundef %11, i32 noundef %12, ptr noundef %13)
  %15 = icmp ne i32 %14, 0
  br i1 %15, label %16, label %17

16:                                               ; preds = %4
  store i32 1, ptr %5, align 4
  br label %23

17:                                               ; preds = %4
  %18 = load ptr, ptr %6, align 8, !tbaa !19
  %19 = load i32, ptr %8, align 4, !tbaa !8
  %20 = load i32, ptr %7, align 4, !tbaa !8
  %21 = load ptr, ptr %9, align 8, !tbaa !22
  %22 = call i32 @Gia_ManObjCheckOverlap1(ptr noundef %18, i32 noundef %19, i32 noundef %20, ptr noundef %21)
  store i32 %22, ptr %5, align 4
  br label %23

23:                                               ; preds = %17, %16
  %24 = load i32, ptr %5, align 4
  ret i32 %24
}