; Function Attrs: nounwind uwtable
define range(i32 0, 2) i32 @Gia_ManObjCheckOverlap(ptr noundef %0, i32 noundef %1, i32 noundef %2, ptr noundef initializes((4, 8)) %3) local_unnamed_addr #1 {
  %5 = getelementptr inbounds nuw i8, ptr %3, i64 4
  store i32 0, ptr %5, align 4, !tbaa !34
  %6 = tail call i32 @Gia_ManObjCheckSat_rec(ptr noundef %0, i32 noundef %1, ptr noundef %3)
  %.not19.i = icmp eq i32 %6, 0
  br i1 %.not19.i, label %10, label %7

7:                                                ; preds = %4
  %8 = tail call i32 @Gia_ManObjCheckSat_rec(ptr noundef %0, i32 noundef %2, ptr noundef nonnull %3)
  %9 = icmp eq i32 %8, 0
  br label %10

10:                                               ; preds = %7, %4
  %.not = phi i1 [ %9, %7 ], [ true, %4 ]
  %11 = getelementptr i8, ptr %0, i64 32
  %.val22.i = load i32, ptr %5, align 4, !tbaa !34
  %12 = icmp sgt i32 %.val22.i, 0
  br i1 %12, label %.lr.ph.i, label %Gia_ManObjCheckOverlap1.exit

.lr.ph.i:                                         ; preds = %10
  %13 = getelementptr i8, ptr %3, i64 8
  br label %14

14:                                               ; preds = %15, %.lr.ph.i
  %indvars.iv.i = phi i64 [ 0, %.lr.ph.i ], [ %indvars.iv.next.i, %15 ]
  %.val21.i = load ptr, ptr %11, align 8, !tbaa !16
  %.not.i = icmp eq ptr %.val21.i, null
  br i1 %.not.i, label %Gia_ManObjCheckOverlap1.exit, label %15

15:                                               ; preds = %14
  %.val20.i = load ptr, ptr %13, align 8, !tbaa !36
  %16 = getelementptr inbounds nuw i32, ptr %.val20.i, i64 %indvars.iv.i
  %17 = load i32, ptr %16, align 4, !tbaa !37
  %18 = sext i32 %17 to i64
  %19 = getelementptr inbounds %struct.Gia_Obj_t_, ptr %.val21.i, i64 %18
  %20 = load i64, ptr %19, align 4
  %21 = and i64 %20, -4611686019501129729
  store i64 %21, ptr %19, align 4
  %indvars.iv.next.i = add nuw nsw i64 %indvars.iv.i, 1
  %.val.i = load i32, ptr %5, align 4, !tbaa !34
  %22 = sext i32 %.val.i to i64
  %23 = icmp slt i64 %indvars.iv.next.i, %22
  br i1 %23, label %14, label %Gia_ManObjCheckOverlap1.exit, !llvm.loop !150

Gia_ManObjCheckOverlap1.exit:                     ; preds = %14, %15, %10
  br i1 %.not, label %24, label %Gia_ManObjCheckOverlap1.exit17

24:                                               ; preds = %Gia_ManObjCheckOverlap1.exit
  store i32 0, ptr %5, align 4, !tbaa !34
  %25 = tail call i32 @Gia_ManObjCheckSat_rec(ptr noundef %0, i32 noundef %2, ptr noundef nonnull %3)
  %.not19.i8 = icmp eq i32 %25, 0
  br i1 %.not19.i8, label %28, label %26

26:                                               ; preds = %24
  %27 = tail call i32 @Gia_ManObjCheckSat_rec(ptr noundef %0, i32 noundef %1, ptr noundef nonnull %3)
  br label %28

28:                                               ; preds = %26, %24
  %29 = phi i32 [ %27, %26 ], [ 0, %24 ]
  %.val22.i9 = load i32, ptr %5, align 4, !tbaa !34
  %30 = icmp sgt i32 %.val22.i9, 0
  br i1 %30, label %.lr.ph.i10, label %Gia_ManObjCheckOverlap1.exit17

.lr.ph.i10:                                       ; preds = %28
  %31 = getelementptr i8, ptr %3, i64 8
  br label %32

32:                                               ; preds = %33, %.lr.ph.i10
  %indvars.iv.i11 = phi i64 [ 0, %.lr.ph.i10 ], [ %indvars.iv.next.i15, %33 ]
  %.val21.i12 = load ptr, ptr %11, align 8, !tbaa !16
  %.not.i13 = icmp eq ptr %.val21.i12, null
  br i1 %.not.i13, label %Gia_ManObjCheckOverlap1.exit17, label %33

33:                                               ; preds = %32
  %.val20.i14 = load ptr, ptr %31, align 8, !tbaa !36
  %34 = getelementptr inbounds nuw i32, ptr %.val20.i14, i64 %indvars.iv.i11
  %35 = load i32, ptr %34, align 4, !tbaa !37
  %36 = sext i32 %35 to i64
  %37 = getelementptr inbounds %struct.Gia_Obj_t_, ptr %.val21.i12, i64 %36
  %38 = load i64, ptr %37, align 4
  %39 = and i64 %38, -4611686019501129729
  store i64 %39, ptr %37, align 4
  %indvars.iv.next.i15 = add nuw nsw i64 %indvars.iv.i11, 1
  %.val.i16 = load i32, ptr %5, align 4, !tbaa !34
  %40 = sext i32 %.val.i16 to i64
  %41 = icmp slt i64 %indvars.iv.next.i15, %40
  br i1 %41, label %32, label %Gia_ManObjCheckOverlap1.exit17, !llvm.loop !150

Gia_ManObjCheckOverlap1.exit17:                   ; preds = %33, %32, %28, %Gia_ManObjCheckOverlap1.exit
  %.0 = phi i32 [ 1, %Gia_ManObjCheckOverlap1.exit ], [ %29, %28 ], [ %29, %32 ], [ %29, %33 ]
  ret i32 %.0
}